; Function Attrs: mustprogress uwtable
define hidden void @_ZN5zxing20PerspectiveTransform21quadrilateralToSquareEffffffff(ptr dead_on_unwind noalias writable writeonly sret(%"class.zxing::Ref") align 8 captures(none) %0, float noundef %1, float noundef %2, float noundef %3, float noundef %4, float noundef %5, float noundef %6, float noundef %7, float noundef %8) local_unnamed_addr #1 align 2 personality ptr @__gxx_personality_v0 {
  %10 = alloca %"class.zxing::Ref", align 8
  call void @llvm.lifetime.start.p0(i64 8, ptr nonnull %10) #11
  call void @_ZN5zxing20PerspectiveTransform21squareToQuadrilateralEffffffff(ptr dead_on_unwind nonnull writable sret(%"class.zxing::Ref") align 8 %10, float noundef %1, float noundef %2, float noundef %3, float noundef %4, float noundef %5, float noundef %6, float noundef %7, float noundef %8)
  %11 = load ptr, ptr %10, align 8, !tbaa !21
  tail call void @llvm.experimental.noalias.scope.decl(metadata !28)
  %12 = invoke noalias noundef nonnull dereferenceable(48) ptr @_Znwm(i64 noundef 48) #12
          to label %13 unwind label %74

13:                                               ; preds = %9
  %14 = getelementptr inbounds nuw i8, ptr %11, i64 28
  %15 = load float, ptr %14, align 4, !tbaa !16, !noalias !28
  %16 = getelementptr inbounds nuw i8, ptr %11, i64 44
  %17 = load float, ptr %16, align 4, !tbaa !20, !noalias !28
  %18 = getelementptr inbounds nuw i8, ptr %11, i64 32
  %19 = load float, ptr %18, align 8, !tbaa !17, !noalias !28
  %20 = getelementptr inbounds nuw i8, ptr %11, i64 40
  %21 = load float, ptr %20, align 8, !tbaa !19, !noalias !28
  %22 = fneg float %21
  %23 = fmul float %19, %22
  %24 = tail call float @llvm.fmuladd.f32(float %15, float %17, float %23)
  %25 = getelementptr inbounds nuw i8, ptr %11, i64 36
  %26 = load float, ptr %25, align 4, !tbaa !18, !noalias !28
  %27 = getelementptr inbounds nuw i8, ptr %11, i64 24
  %28 = load float, ptr %27, align 8, !tbaa !15, !noalias !28
  %29 = fneg float %17
  %30 = fmul float %28, %29
  %31 = tail call float @llvm.fmuladd.f32(float %19, float %26, float %30)
  %32 = fneg float %26
  %33 = fmul float %15, %32
  %34 = tail call float @llvm.fmuladd.f32(float %28, float %21, float %33)
  %35 = getelementptr inbounds nuw i8, ptr %11, i64 20
  %36 = load float, ptr %35, align 4, !tbaa !14, !noalias !28
  %37 = getelementptr inbounds nuw i8, ptr %11, i64 16
  %38 = load float, ptr %37, align 8, !tbaa !13, !noalias !28
  %39 = fmul float %38, %29
  %40 = tail call float @llvm.fmuladd.f32(float %36, float %21, float %39)
  %41 = getelementptr inbounds nuw i8, ptr %11, i64 12
  %42 = load float, ptr %41, align 4, !tbaa !10, !noalias !28
  %43 = fmul float %36, %32
  %44 = tail call float @llvm.fmuladd.f32(float %42, float %17, float %43)
  %45 = fmul float %42, %22
  %46 = tail call float @llvm.fmuladd.f32(float %38, float %26, float %45)
  %47 = fneg float %15
  %48 = fmul float %36, %47
  %49 = tail call float @llvm.fmuladd.f32(float %38, float %19, float %48)
  %50 = fneg float %19
  %51 = fmul float %42, %50
  %52 = tail call float @llvm.fmuladd.f32(float %36, float %28, float %51)
  %53 = fneg float %28
  %54 = fmul float %38, %53
  %55 = tail call float @llvm.fmuladd.f32(float %42, float %15, float %54)
  %56 = getelementptr inbounds nuw i8, ptr %12, i64 8
  store ptr getelementptr inbounds nuw inrange(-16, 16) (i8, ptr @_ZTVN5zxing20PerspectiveTransformE, i64 16), ptr %12, align 8, !tbaa !8, !noalias !28
  %57 = getelementptr inbounds nuw i8, ptr %12, i64 12
  store float %24, ptr %57, align 4, !tbaa !10, !noalias !28
  %58 = getelementptr inbounds nuw i8, ptr %12, i64 16
  store float %40, ptr %58, align 8, !tbaa !13, !noalias !28
  %59 = getelementptr inbounds nuw i8, ptr %12, i64 20
  store float %49, ptr %59, align 4, !tbaa !14, !noalias !28
  %60 = getelementptr inbounds nuw i8, ptr %12, i64 24
  store float %31, ptr %60, align 8, !tbaa !15, !noalias !28
  %61 = getelementptr inbounds nuw i8, ptr %12, i64 28
  store float %44, ptr %61, align 4, !tbaa !16, !noalias !28
  %62 = getelementptr inbounds nuw i8, ptr %12, i64 32
  store float %52, ptr %62, align 8, !tbaa !17, !noalias !28
  %63 = getelementptr inbounds nuw i8, ptr %12, i64 36
  store float %34, ptr %63, align 4, !tbaa !18, !noalias !28
  %64 = getelementptr inbounds nuw i8, ptr %12, i64 40
  store float %46, ptr %64, align 8, !tbaa !19, !noalias !28
  %65 = getelementptr inbounds nuw i8, ptr %12, i64 44
  store float %55, ptr %65, align 4, !tbaa !20, !noalias !28
  store i32 1, ptr %56, align 8, !tbaa !3, !noalias !28
  store ptr %12, ptr %0, align 8, !tbaa !21, !alias.scope !28
  %66 = getelementptr inbounds nuw i8, ptr %11, i64 8
  %67 = load i32, ptr %66, align 8, !tbaa !3
  %68 = add i32 %67, -1
  store i32 %68, ptr %66, align 8, !tbaa !3
  %69 = icmp eq i32 %68, 0
  br i1 %69, label %70, label %_ZN5zxing3RefINS_20PerspectiveTransformEED2Ev.exit

70:                                               ; preds = %13
  store i32 -559026175, ptr %66, align 8, !tbaa !3
  %71 = load ptr, ptr %11, align 8, !tbaa !8
  %72 = getelementptr inbounds nuw i8, ptr %71, i64 8
  %73 = load ptr, ptr %72, align 8
  tail call void %73(ptr noundef nonnull align 8 dereferenceable(12) %11) #11
  br label %_ZN5zxing3RefINS_20PerspectiveTransformEED2Ev.exit

_ZN5zxing3RefINS_20PerspectiveTransformEED2Ev.exit: ; preds = %13, %70
  call void @llvm.lifetime.end.p0(i64 8, ptr nonnull %10) #11
  ret void

74:                                               ; preds = %9
  %75 = landingpad { ptr, i32 }
          cleanup
  %.not.i9 = icmp eq ptr %11, null
  br i1 %.not.i9, label %_ZN5zxing3RefINS_20PerspectiveTransformEED2Ev.exit10, label %76

76:                                               ; preds = %74
  %77 = getelementptr inbounds nuw i8, ptr %11, i64 8
  %78 = load i32, ptr %77, align 8, !tbaa !3
  %79 = add i32 %78, -1
  store i32 %79, ptr %77, align 8, !tbaa !3
  %80 = icmp eq i32 %79, 0
  br i1 %80, label %81, label %_ZN5zxing3RefINS_20PerspectiveTransformEED2Ev.exit10

81:                                               ; preds = %76
  store i32 -559026175, ptr %77, align 8, !tbaa !3
  %82 = load ptr, ptr %11, align 8, !tbaa !8
  %83 = getelementptr inbounds nuw i8, ptr %82, i64 8
  %84 = load ptr, ptr %83, align 8
  tail call void %84(ptr noundef nonnull align 8 dereferenceable(12) %11) #11
  br label %_ZN5zxing3RefINS_20PerspectiveTransformEED2Ev.exit10

_ZN5zxing3RefINS_20PerspectiveTransformEED2Ev.exit10: ; preds = %74, %76, %81
  call void @llvm.lifetime.end.p0(i64 8, ptr nonnull %10) #11
  resume { ptr, i32 } %75
}